; Function Attrs: mustprogress uwtable
define noundef nonnull align 8 dereferenceable(64) ptr @_ZNK6icu_7522RuleBasedBreakIterator8getRulesEv(ptr nocapture noundef nonnull readonly align 8 dereferenceable(745) %this) unnamed_addr #1 align 2 personality ptr @__gxx_personality_v0 {
entry:
  %fData = getelementptr inbounds i8, ptr %this, i64 624
  %0 = load ptr, ptr %fData, align 8
  %cmp.not = icmp eq ptr %0, null
  br i1 %cmp.not, label %if.else, label %if.then

if.then:                                          ; preds = %entry
  %call = tail call noundef nonnull align 8 dereferenceable(64) ptr @_ZNK6icu_7515RBBIDataWrapper19getRuleSourceStringEv(ptr noundef nonnull align 8 dereferenceable(137) %0)
  br label %return

if.else:                                          ; preds = %entry
  %1 = load atomic i32, ptr @_ZL13gRBBIInitOnce acquire, align 4
  %cmp.i = icmp eq i32 %1, 2
  br i1 %cmp.i, label %_ZN6icu_7513umtx_initOnceERNS_9UInitOnceEPFvvE.exit, label %if.end.i

if.end.i:                                         ; preds = %if.else
  %call1.i = tail call noundef signext i8 @_ZN6icu_7520umtx_initImplPreInitERNS_9UInitOnceE(ptr noundef nonnull align 4 dereferenceable(8) @_ZL13gRBBIInitOnce)
  %tobool.not.i = icmp eq i8 %call1.i, 0
  br i1 %tobool.not.i, label %_ZN6icu_7513umtx_initOnceERNS_9UInitOnceEPFvvE.exit, label %if.then2.i

if.then2.i:                                       ; preds = %if.end.i
  %call.i = tail call noundef ptr @_ZN6icu_757UMemorynwEm(i64 noundef 64) #15
  %new.isnull.i = icmp eq ptr %call.i, null
  br i1 %new.isnull.i, label %_ZN6icu_75L8rbbiInitEv.exit, label %new.notnull.i

new.notnull.i:                                    ; preds = %if.then2.i
  store ptr getelementptr inbounds ({ [13 x ptr] }, ptr @_ZTVN6icu_7513UnicodeStringE, i64 0, i32 0, i64 2), ptr %call.i, align 8
  %fUnion2.i.i = getelementptr inbounds i8, ptr %call.i, i64 8
  store i16 2, ptr %fUnion2.i.i, align 8
  br label %_ZN6icu_75L8rbbiInitEv.exit

_ZN6icu_75L8rbbiInitEv.exit:                      ; preds = %if.then2.i, %new.notnull.i
  store ptr %call.i, ptr @_ZL12gEmptyString, align 8
  tail call void @ucln_common_registerCleanup_75(i32 noundef 3, ptr noundef nonnull @rbbi_cleanup_75)
  tail call void @_ZN6icu_7521umtx_initImplPostInitERNS_9UInitOnceE(ptr noundef nonnull align 4 dereferenceable(8) @_ZL13gRBBIInitOnce)
  br label %_ZN6icu_7513umtx_initOnceERNS_9UInitOnceEPFvvE.exit

_ZN6icu_7513umtx_initOnceERNS_9UInitOnceEPFvvE.exit: ; preds = %if.else, %if.end.i, %_ZN6icu_75L8rbbiInitEv.exit
  %2 = load ptr, ptr @_ZL12gEmptyString, align 8
  br label %return

return:                                           ; preds = %_ZN6icu_7513umtx_initOnceERNS_9UInitOnceEPFvvE.exit, %if.then
  %retval.0 = phi ptr [ %call, %if.then ], [ %2, %_ZN6icu_7513umtx_initOnceERNS_9UInitOnceEPFvvE.exit ]
  ret ptr %retval.0
}